target datalayout = "e-m:e-p270:32:32-p271:32:32-p272:64:64-i64:64-i128:128-f80:128-n8:16:32:64-S128"
target triple = "x86_64-pc-linux-gnu"

%class.PSOldGen = type { ptr, ptr, %class.ObjectStartArray, ptr, ptr, ptr, i64, i64 }
%class.ObjectStartArray = type { [8 x i8], %class.PSVirtualSpace, ptr }
%class.PSVirtualSpace = type <{ ptr, i64, ptr, ptr, ptr, ptr, i8, [7 x i8] }>

@_ZN20ParallelScavengeHeap8_old_genE = hidden global ptr null, align 8
@_ZN9CardTable10_card_sizeE = external global i32, align 4

; Function Attrs: mustprogress nounwind uwtable
define linkonce_odr hidden noundef i64 @_Z10align_downImjTnNSt9enable_ifIXcvbsr3std11is_integralIT_EE5valueEiE4typeELi0EES1_S1_T0_(i64 noundef %0, i32 noundef %1) #1 comdat {
  %3 = alloca i64, align 8
  %4 = alloca i32, align 4
  %5 = alloca i64, align 8
  store i64 %0, ptr %3, align 8
  store i32 %1, ptr %4, align 4
  %6 = load i64, ptr %3, align 8
  %7 = load i32, ptr %4, align 4
  %8 = call noundef i32 @_ZL14alignment_maskIjTnNSt9enable_ifIXcvbsr3std11is_integralIT_EE5valueEiE4typeELi0EES1_S1_(i32 noundef %7)
  %9 = zext i32 %8 to i64
  %10 = xor i64 %9, -1
  %11 = and i64 %6, %10
  store i64 %11, ptr %5, align 8
  %12 = load i64, ptr %5, align 8
  ret i64 %12
}

; Function Attrs: mustprogress nounwind uwtable
define linkonce_odr hidden noundef i64 @_Z12checked_castImmET_T0_(i64 noundef %0) #1 comdat {
  %2 = alloca i64, align 8
  %3 = alloca i64, align 8
  store i64 %0, ptr %2, align 8
  %4 = load i64, ptr %2, align 8
  store i64 %4, ptr %3, align 8
  %5 = load i64, ptr %3, align 8
  ret i64 %5
}

; Function Attrs: mustprogress nounwind uwtable
define internal noundef i32 @_ZL14alignment_maskIjTnNSt9enable_ifIXcvbsr3std11is_integralIT_EE5valueEiE4typeELi0EES1_S1_(i32 noundef %0) #1 {
  %2 = alloca i32, align 4
  store i32 %0, ptr %2, align 4
  %3 = load i32, ptr %2, align 4
  %4 = sub i32 %3, 1
  ret i32 %4
}

; Function Attrs: mustprogress nounwind uwtable
define linkonce_odr hidden noundef i64 @_Z8align_upImjTnNSt9enable_ifIXcvbsr3std11is_integralIT_EE5valueEiE4typeELi0EES1_S1_T0_(i64 noundef %0, i32 noundef %1) #1 comdat {
  %3 = alloca i64, align 8
  %4 = alloca i32, align 4
  %5 = alloca i64, align 8
  store i64 %0, ptr %3, align 8
  store i32 %1, ptr %4, align 4
  %6 = load i64, ptr %3, align 8
  %7 = load i32, ptr %4, align 4
  %8 = call noundef i32 @_ZL14alignment_maskIjTnNSt9enable_ifIXcvbsr3std11is_integralIT_EE5valueEiE4typeELi0EES1_S1_(i32 noundef %7)
  %9 = zext i32 %8 to i64
  %10 = add i64 %6, %9
  %11 = call noundef i64 @_Z12checked_castImmET_T0_(i64 noundef %10)
  store i64 %11, ptr %5, align 8
  %12 = load i64, ptr %5, align 8
  %13 = load i32, ptr %4, align 4
  %14 = call noundef i64 @_Z10align_downImjTnNSt9enable_ifIXcvbsr3std11is_integralIT_EE5valueEiE4typeELi0EES1_S1_T0_(i64 noundef %12, i32 noundef %13)
  ret i64 %14
}

; Function Attrs: mustprogress nounwind uwtable
define linkonce_odr hidden noundef ptr @_Z8align_upIP12HeapWordImpljEPT_S3_T0_(ptr noundef %0, i32 noundef %1) #1 comdat {
  %3 = alloca ptr, align 8
  %4 = alloca i32, align 4
  store ptr %0, ptr %3, align 8
  store i32 %1, ptr %4, align 4
  %5 = load ptr, ptr %3, align 8
  %6 = ptrtoint ptr %5 to i64
  %7 = load i32, ptr %4, align 4
  %8 = call noundef i64 @_Z8align_upImjTnNSt9enable_ifIXcvbsr3std11is_integralIT_EE5valueEiE4typeELi0EES1_S1_T0_(i64 noundef %6, i32 noundef %7)
  %9 = inttoptr i64 %8 to ptr
  ret ptr %9
}

; Function Attrs: mustprogress nounwind uwtable
define linkonce_odr hidden noundef i32 @_ZN9CardTable9card_sizeEv() #1 comdat align 2 {
  %1 = load i32, ptr @_ZN9CardTable10_card_sizeE, align 4
  ret i32 %1
}

; Function Attrs: mustprogress nounwind uwtable
define linkonce_odr hidden noundef ptr @_ZN16ObjectStartArray21align_up_by_card_sizeEPP12HeapWordImpl(ptr noundef %0) #1 comdat align 2 {
  %2 = alloca ptr, align 8
  store ptr %0, ptr %2, align 8
  %3 = load ptr, ptr %2, align 8
  %4 = call noundef i32 @_ZN9CardTable9card_sizeEv()
  %5 = call noundef ptr @_Z8align_upIP12HeapWordImpljEPT_S3_T0_(ptr noundef %3, i32 noundef %4)
  ret ptr %5
}

; Function Attrs: mustprogress nounwind uwtable
define linkonce_odr hidden noundef zeroext i1 @_ZN16ObjectStartArray25is_crossing_card_boundaryEPP12HeapWordImplS2_(ptr noundef %0, ptr noundef %1) #1 comdat align 2 {
  %3 = alloca ptr, align 8
  %4 = alloca ptr, align 8
  %5 = alloca ptr, align 8
  store ptr %0, ptr %3, align 8
  store ptr %1, ptr %4, align 8
  %6 = load ptr, ptr %3, align 8
  %7 = call noundef ptr @_ZN16ObjectStartArray21align_up_by_card_sizeEPP12HeapWordImpl(ptr noundef %6)
  store ptr %7, ptr %5, align 8
  %8 = load ptr, ptr %4, align 8
  %9 = load ptr, ptr %5, align 8
  %10 = icmp ugt ptr %8, %9
  ret i1 %10
}

; Function Attrs: mustprogress nounwind uwtable
define linkonce_odr hidden void @_ZN16ObjectStartArray16update_for_blockEPP12HeapWordImplS2_(ptr noundef nonnull align 8 dereferenceable(72) %0, ptr noundef %1, ptr noundef %2) #1 comdat align 2 {
  %4 = alloca ptr, align 8
  %5 = alloca ptr, align 8
  %6 = alloca ptr, align 8
  store ptr %0, ptr %4, align 8
  store ptr %1, ptr %5, align 8
  store ptr %2, ptr %6, align 8
  %7 = load ptr, ptr %4, align 8
  %8 = load ptr, ptr %5, align 8
  %9 = load ptr, ptr %6, align 8
  %10 = call noundef zeroext i1 @_ZN16ObjectStartArray25is_crossing_card_boundaryEPP12HeapWordImplS2_(ptr noundef %8, ptr noundef %9)
  br i1 %10, label %11, label %14

11:                                               ; preds = %3
  %12 = load ptr, ptr %5, align 8
  %13 = load ptr, ptr %6, align 8
  call void @_ZN16ObjectStartArray21update_for_block_workEPP12HeapWordImplS2_(ptr noundef nonnull align 8 dereferenceable(72) %7, ptr noundef %12, ptr noundef %13)
  br label %14

14:                                               ; preds = %11, %3
  ret void
}

; Function Attrs: mustprogress nounwind uwtable
define linkonce_odr hidden noundef ptr @_ZNK8PSOldGen12object_spaceEv(ptr noundef nonnull align 8 dereferenceable(128) %0) #1 comdat align 2 {
  %2 = alloca ptr, align 8
  store ptr %0, ptr %2, align 8
  %3 = load ptr, ptr %2, align 8
  %4 = getelementptr inbounds %class.PSOldGen, ptr %3, i32 0, i32 3
  %5 = load ptr, ptr %4, align 8
  ret ptr %5
}

; Function Attrs: mustprogress nounwind uwtable
define linkonce_odr hidden noundef ptr @_ZN8PSOldGen21cas_allocate_noexpandEm(ptr noundef nonnull align 8 dereferenceable(128) %0, i64 noundef %1) #1 comdat align 2 {
  %3 = alloca ptr, align 8
  %4 = alloca i64, align 8
  %5 = alloca ptr, align 8
  store ptr %0, ptr %3, align 8
  store i64 %1, ptr %4, align 8
  %6 = load ptr, ptr %3, align 8
  %7 = call noundef ptr @_ZNK8PSOldGen12object_spaceEv(ptr noundef nonnull align 8 dereferenceable(128) %6)
  %8 = load i64, ptr %4, align 8
  %9 = load ptr, ptr %7, align 8
  %10 = getelementptr inbounds ptr, ptr %9, i64 15
  %11 = load ptr, ptr %10, align 8
  %12 = call noundef ptr %11(ptr noundef nonnull align 8 dereferenceable(56) %7, i64 noundef %8)
  store ptr %12, ptr %5, align 8
  %13 = load ptr, ptr %5, align 8
  %14 = icmp ne ptr %13, null
  br i1 %14, label %15, label %21

15:                                               ; preds = %2
  %16 = getelementptr inbounds %class.PSOldGen, ptr %6, i32 0, i32 2
  %17 = load ptr, ptr %5, align 8
  %18 = load ptr, ptr %5, align 8
  %19 = load i64, ptr %4, align 8
  %20 = getelementptr inbounds ptr, ptr %18, i64 %19
  call void @_ZN16ObjectStartArray16update_for_blockEPP12HeapWordImplS2_(ptr noundef nonnull align 8 dereferenceable(72) %16, ptr noundef %17, ptr noundef %20)
  br label %21

21:                                               ; preds = %15, %2
  %22 = load ptr, ptr %5, align 8
  ret ptr %22
}

; Function Attrs: mustprogress nounwind uwtable
define linkonce_odr hidden noundef ptr @_ZN8PSOldGen8allocateEm(ptr noundef nonnull align 8 dereferenceable(128) %0, i64 noundef %1) #1 comdat align 2 {
  %3 = alloca ptr, align 8
  %4 = alloca i64, align 8
  %5 = alloca ptr, align 8
  store ptr %0, ptr %3, align 8
  store i64 %1, ptr %4, align 8
  %6 = load ptr, ptr %3, align 8
  br label %7

7:                                                ; preds = %16, %2
  %8 = load i64, ptr %4, align 8
  %9 = call noundef ptr @_ZN8PSOldGen21cas_allocate_noexpandEm(ptr noundef nonnull align 8 dereferenceable(128) %6, i64 noundef %8)
  store ptr %9, ptr %5, align 8
  br label %10

10:                                               ; preds = %7
  %11 = load ptr, ptr %5, align 8
  %12 = icmp eq ptr %11, null
  br i1 %12, label %13, label %16

13:                                               ; preds = %10
  %14 = load i64, ptr %4, align 8
  %15 = call noundef zeroext i1 @_ZN8PSOldGen19expand_for_allocateEm(ptr noundef nonnull align 8 dereferenceable(128) %6, i64 noundef %14)
  br label %16

16:                                               ; preds = %13, %10
  %17 = phi i1 [ false, %10 ], [ %15, %13 ]
  br i1 %17, label %7, label %18, !llvm.loop !8

18:                                               ; preds = %16
  %19 = load ptr, ptr %5, align 8
  ret ptr %19
}

; Function Attrs: mustprogress nounwind uwtable
define hidden noundef ptr @_ZN20ParallelScavengeHeap29allocate_loaded_archive_spaceEm(ptr noundef nonnull align 8 dereferenceable(264) %0, i64 noundef %1) unnamed_addr #1 align 2 {
  %3 = alloca ptr, align 8
  %4 = alloca i64, align 8
  store ptr %0, ptr %3, align 8
  store i64 %1, ptr %4, align 8
  %5 = load ptr, ptr @_ZN20ParallelScavengeHeap8_old_genE, align 8
  %6 = load i64, ptr %4, align 8
  %7 = call noundef ptr @_ZN8PSOldGen8allocateEm(ptr noundef nonnull align 8 dereferenceable(128) %5, i64 noundef %6)
  ret ptr %7
}