; Function Attrs: mustprogress nounwind uwtable
define hidden noundef ptr @_ZN20ParallelScavengeHeap29allocate_loaded_archive_spaceEm(ptr nocapture nonnull readnone align 8 %0, i64 noundef %1) unnamed_addr #0 align 2 {
  %3 = load ptr, ptr @_ZN20ParallelScavengeHeap8_old_genE, align 8
  %4 = getelementptr inbounds i8, ptr %3, i64 88
  br label %5

5:                                                ; preds = %_ZN8PSOldGen21cas_allocate_noexpandEm.exit.i, %2
  %6 = load ptr, ptr %4, align 8
  %7 = load ptr, ptr %6, align 8
  %8 = getelementptr inbounds i8, ptr %7, i64 120
  %9 = load ptr, ptr %8, align 8
  %10 = tail call noundef ptr %9(ptr noundef nonnull align 8 dereferenceable(56) %6, i64 noundef %1) #15
  %.not.i.i = icmp eq ptr %10, null
  br i1 %.not.i.i, label %_ZN8PSOldGen21cas_allocate_noexpandEm.exit.i, label %11

11:                                               ; preds = %5
  %12 = getelementptr inbounds ptr, ptr %10, i64 %1
  %13 = load i32, ptr @_ZN9CardTable10_card_sizeE, align 4
  %14 = ptrtoint ptr %10 to i64
  %15 = add i32 %13, -1
  %16 = zext i32 %15 to i64
  %17 = add i64 %16, %14
  %18 = xor i64 %16, -1
  %19 = and i64 %17, %18
  %20 = inttoptr i64 %19 to ptr
  %21 = icmp ugt ptr %12, %20
  br i1 %21, label %22, label %_ZN8PSOldGen8allocateEm.exit

22:                                               ; preds = %11
  %23 = getelementptr inbounds i8, ptr %3, i64 16
  tail call void @_ZN16ObjectStartArray21update_for_block_workEPP12HeapWordImplS2_(ptr noundef nonnull align 8 dereferenceable(72) %23, ptr noundef nonnull %10, ptr noundef nonnull %12) #15
  br label %_ZN8PSOldGen8allocateEm.exit

_ZN8PSOldGen21cas_allocate_noexpandEm.exit.i:     ; preds = %5
  %24 = tail call noundef zeroext i1 @_ZN8PSOldGen19expand_for_allocateEm(ptr noundef nonnull align 8 dereferenceable(128) %3, i64 noundef %1) #15
  br i1 %24, label %5, label %_ZN8PSOldGen8allocateEm.exit, !llvm.loop !14

_ZN8PSOldGen8allocateEm.exit:                     ; preds = %_ZN8PSOldGen21cas_allocate_noexpandEm.exit.i, %11, %22
  ret ptr %10
}